target datalayout = "e-m:e-p270:32:32-p271:32:32-p272:64:64-i64:64-i128:128-f80:128-n8:16:32:64-S128"
target triple = "x86_64-pc-linux-gnu"

%struct.bpsec_id_t = type { i64, i64 }

; Function Attrs: null_pointer_is_valid sspstrong uwtable
define ptr @bpsec_id_new(ptr noundef %0, i64 noundef %1, i64 noundef %2) #0 {
  %4 = alloca ptr, align 8
  %5 = alloca i64, align 8
  %6 = alloca i64, align 8
  %7 = alloca ptr, align 8
  %8 = alloca i64, align 8
  %9 = alloca i64, align 8
  %10 = alloca ptr, align 8
  %11 = alloca ptr, align 8
  store ptr %0, ptr %4, align 8
  store i64 %1, ptr %5, align 8
  store i64 %2, ptr %6, align 8
  call void @llvm.lifetime.start.p0(i64 8, ptr %7) #10
  %12 = load ptr, ptr %4, align 8
  %13 = icmp ne ptr %12, null
  br i1 %13, label %14, label %17

14:                                               ; preds = %3
  %15 = load ptr, ptr %4, align 8
  %16 = call noalias ptr @wmem_alloc(ptr noundef %15, i64 noundef 16) #11
  store ptr %16, ptr %7, align 8
  br label %47

17:                                               ; preds = %3
  call void @llvm.lifetime.start.p0(i64 8, ptr %8) #10
  store i64 1, ptr %8, align 8
  call void @llvm.lifetime.start.p0(i64 8, ptr %9) #10
  store i64 16, ptr %9, align 8
  call void @llvm.lifetime.start.p0(i64 8, ptr %10) #10
  %18 = load i64, ptr %9, align 8
  %19 = icmp eq i64 %18, 1
  br i1 %19, label %20, label %23

20:                                               ; preds = %17
  %21 = load i64, ptr %8, align 8
  %22 = call noalias ptr @g_malloc(i64 noundef %21) #12
  store ptr %22, ptr %10, align 8
  br label %44

23:                                               ; preds = %17
  %24 = load i64, ptr %8, align 8
  %25 = call i1 @llvm.is.constant.i64(i64 %24)
  br i1 %25, label %26, label %39

26:                                               ; preds = %23
  %27 = load i64, ptr %9, align 8
  %28 = icmp eq i64 %27, 0
  br i1 %28, label %34, label %29

29:                                               ; preds = %26
  %30 = load i64, ptr %8, align 8
  %31 = load i64, ptr %9, align 8
  %32 = udiv i64 -1, %31
  %33 = icmp ule i64 %30, %32
  br i1 %33, label %34, label %39

34:                                               ; preds = %29, %26
  %35 = load i64, ptr %8, align 8
  %36 = load i64, ptr %9, align 8
  %37 = mul i64 %35, %36
  %38 = call noalias ptr @g_malloc(i64 noundef %37) #12
  store ptr %38, ptr %10, align 8
  br label %43

39:                                               ; preds = %29, %23
  %40 = load i64, ptr %8, align 8
  %41 = load i64, ptr %9, align 8
  %42 = call noalias ptr @g_malloc_n(i64 noundef %40, i64 noundef %41) #13
  store ptr %42, ptr %10, align 8
  br label %43

43:                                               ; preds = %39, %34
  br label %44

44:                                               ; preds = %43, %20
  %45 = load ptr, ptr %10, align 8
  store ptr %45, ptr %11, align 8
  call void @llvm.lifetime.end.p0(i64 8, ptr %10) #10
  call void @llvm.lifetime.end.p0(i64 8, ptr %9) #10
  call void @llvm.lifetime.end.p0(i64 8, ptr %8) #10
  %46 = load ptr, ptr %11, align 8
  store ptr %46, ptr %7, align 8
  br label %47

47:                                               ; preds = %44, %14
  %48 = load i64, ptr %5, align 8
  %49 = load ptr, ptr %7, align 8
  %50 = getelementptr inbounds nuw %struct.bpsec_id_t, ptr %49, i32 0, i32 0
  store i64 %48, ptr %50, align 8
  %51 = load i64, ptr %6, align 8
  %52 = load ptr, ptr %7, align 8
  %53 = getelementptr inbounds nuw %struct.bpsec_id_t, ptr %52, i32 0, i32 1
  store i64 %51, ptr %53, align 8
  %54 = load ptr, ptr %7, align 8
  call void @llvm.lifetime.end.p0(i64 8, ptr %7) #10
  ret ptr %54
}