; Function Attrs: null_pointer_is_valid sspstrong uwtable
define noalias noundef ptr @bpsec_id_new(ptr noundef %0, i64 noundef %1, i64 noundef %2) local_unnamed_addr #0 {
  %.not = icmp eq ptr %0, null
  br i1 %.not, label %6, label %4

4:                                                ; preds = %3
  %5 = tail call noalias dereferenceable_or_null(16) ptr @wmem_alloc(ptr noundef nonnull %0, i64 noundef 16) #8
  br label %8

6:                                                ; preds = %3
  %7 = tail call noalias dereferenceable_or_null(16) ptr @g_malloc(i64 noundef 16) #9
  br label %8

8:                                                ; preds = %6, %4
  %.0 = phi ptr [ %5, %4 ], [ %7, %6 ]
  store i64 %1, ptr %.0, align 8
  %9 = getelementptr inbounds nuw i8, ptr %.0, i64 8
  store i64 %2, ptr %9, align 8
  ret ptr %.0
}